target datalayout = "e-m:e-p270:32:32-p271:32:32-p272:64:64-i64:64-i128:128-f80:128-n8:16:32:64-S128"
target triple = "x86_64-pc-linux-gnu"

%struct.xcgroup_ns_t = type { ptr, ptr, ptr, ptr }
%struct.xcgroup_t = type { ptr, ptr, ptr, i32, i32, i32 }
%struct.slurm_conf_t = type { i64, ptr, i16, ptr, ptr, ptr, ptr, ptr, i16, ptr, ptr, ptr, ptr, ptr, ptr, ptr, i16, ptr, ptr, ptr, ptr, i16, ptr, ptr, ptr, i64, ptr, ptr, ptr, ptr, i16, ptr, ptr, i16, i32, ptr, i32, ptr, i32, i32, ptr, ptr, i64, i64, ptr, i16, i16, ptr, i32, i32, ptr, i32, ptr, i32, i16, i16, i16, ptr, i16, i16, ptr, ptr, i32, i16, i16, ptr, i32, i16, ptr, ptr, ptr, ptr, i16, ptr, ptr, ptr, ptr, i32, ptr, ptr, ptr, ptr, i16, i16, ptr, i32, i32, i32, i16, i16, ptr, ptr, i16, ptr, ptr, i32, i32, i32, i32, i32, i64, i32, i32, i16, ptr, ptr, i32, ptr, ptr, ptr, i16, i32, ptr, ptr, i16, ptr, ptr, i32, i16, ptr, ptr, ptr, ptr, i32, i32, i16, i16, i32, ptr, i16, ptr, i32, i32, i32, i32, i32, i32, ptr, i16, ptr, ptr, i32, i16, ptr, i32, i16, i16, ptr, ptr, ptr, i16, ptr, ptr, ptr, ptr, i16, i16, ptr, i16, ptr, i16, ptr, i16, ptr, i16, ptr, ptr, ptr, ptr, i16, ptr, ptr, ptr, i32, ptr, i32, ptr, ptr, i16, ptr, ptr, i32, i16, ptr, ptr, i16, i16, ptr, i16, ptr, ptr, ptr, i32, ptr, i16, i16, ptr, ptr, ptr, ptr, ptr, ptr, ptr, ptr, i16, i32, i16, ptr, ptr, ptr, ptr, i32, ptr, ptr, ptr, i16, ptr, ptr, ptr, i16, ptr, i16, ptr, i16, i16, ptr }

@plugin_type = dso_local constant [10 x i8] c"cgroup/v1\00", align 1
@g_user_cgpath = internal global [5 x [4096 x i8]] zeroinitializer, align 16
@g_job_cgpath = internal global [5 x [4096 x i8]] zeroinitializer, align 16
@g_step_cgpath = internal global [5 x [4096 x i8]] zeroinitializer, align 16
@g_cg_ns = internal global [5 x %struct.xcgroup_ns_t] zeroinitializer, align 16
@int_cg = internal global [5 x [9 x %struct.xcgroup_t]] zeroinitializer, align 16
@.str.10 = private unnamed_addr constant [10 x i8] c"%s/system\00", align 1
@.str.11 = private unnamed_addr constant [18 x i8] c"notify_on_release\00", align 1
@.str.12 = private unnamed_addr constant [2 x i8] c"0\00", align 1
@slurm_conf = external global %struct.slurm_conf_t, align 8
@.str.25 = private unnamed_addr constant [12 x i8] c"cpuset.cpus\00", align 1
@.str.86 = private unnamed_addr constant [22 x i8] c"cgroup.clone_children\00", align 1
@.str.87 = private unnamed_addr constant [64 x i8] c"%s: %s: CGROUP: system cgroup: system cpuset cgroup initialized\00", align 1
@__func__._cpuset_create = private unnamed_addr constant [15 x i8] c"_cpuset_create\00", align 1

; Function Attrs: nounwind uwtable
define internal i32 @_cpuset_create(ptr noundef %0) #0 {
  %2 = alloca i32, align 4
  %3 = alloca ptr, align 8
  %4 = alloca i32, align 4
  %5 = alloca ptr, align 8
  %6 = alloca ptr, align 8
  %7 = alloca i64, align 8
  %8 = alloca i32, align 4
  store ptr %0, ptr %3, align 8
  call void @llvm.lifetime.start.p0(i64 4, ptr %4) #7
  call void @llvm.lifetime.start.p0(i64 8, ptr %5) #7
  store ptr null, ptr %5, align 8
  call void @llvm.lifetime.start.p0(i64 8, ptr %6) #7
  call void @llvm.lifetime.start.p0(i64 8, ptr %7) #7
  %9 = call i32 @common_cgroup_get_param(ptr noundef getelementptr inbounds ([9 x %struct.xcgroup_t], ptr getelementptr inbounds ([5 x [9 x %struct.xcgroup_t]], ptr @int_cg, i64 0, i64 1), i64 0, i64 1), ptr noundef @.str.25, ptr noundef %6, ptr noundef %7)
  store i32 %9, ptr %4, align 4
  %10 = load i32, ptr %4, align 4
  %11 = icmp ne i32 %10, 0
  br i1 %11, label %15, label %12

12:                                               ; preds = %1
  %13 = load i64, ptr %7, align 8
  %14 = icmp eq i64 %13, 1
  br i1 %14, label %15, label %20

15:                                               ; preds = %12, %1
  %16 = call i32 @xcgroup_cpuset_init(ptr noundef getelementptr inbounds ([9 x %struct.xcgroup_t], ptr getelementptr inbounds ([5 x [9 x %struct.xcgroup_t]], ptr @int_cg, i64 0, i64 1), i64 0, i64 1))
  %17 = icmp ne i32 %16, 0
  br i1 %17, label %18, label %19

18:                                               ; preds = %15
  call void @slurm_xfree(ptr noundef %6)
  store i32 -1, ptr %2, align 4
  store i32 1, ptr %8, align 4
  br label %66

19:                                               ; preds = %15
  br label %20

20:                                               ; preds = %19, %12
  %21 = call i32 @common_cgroup_set_param(ptr noundef getelementptr inbounds ([9 x %struct.xcgroup_t], ptr getelementptr inbounds ([5 x [9 x %struct.xcgroup_t]], ptr @int_cg, i64 0, i64 1), i64 0, i64 1), ptr noundef @.str.86, ptr noundef @.str.12)
  %22 = load ptr, ptr %3, align 8
  %23 = icmp eq ptr %22, null
  br i1 %23, label %24, label %60

24:                                               ; preds = %20
  %25 = load ptr, ptr getelementptr inbounds nuw (%struct.xcgroup_t, ptr getelementptr inbounds ([9 x %struct.xcgroup_t], ptr getelementptr inbounds ([5 x [9 x %struct.xcgroup_t]], ptr @int_cg, i64 0, i64 1), i64 0, i64 1), i32 0, i32 1), align 8
  call void (ptr, ptr, ...) @_xstrfmtcat(ptr noundef %5, ptr noundef @.str.10, ptr noundef %25)
  %26 = load ptr, ptr %5, align 8
  %27 = call i32 @getuid() #7
  %28 = call i32 @getgid() #7
  %29 = call i32 @common_cgroup_create(ptr noundef getelementptr inbounds ([5 x %struct.xcgroup_ns_t], ptr @g_cg_ns, i64 0, i64 1), ptr noundef getelementptr inbounds ([9 x %struct.xcgroup_t], ptr getelementptr inbounds ([5 x [9 x %struct.xcgroup_t]], ptr @int_cg, i64 0, i64 1), i64 0, i64 8), ptr noundef %26, i32 noundef %27, i32 noundef %28)
  store i32 %29, ptr %4, align 4
  %30 = icmp ne i32 %29, 0
  br i1 %30, label %31, label %32

31:                                               ; preds = %24
  br label %64

32:                                               ; preds = %24
  %33 = call zeroext i1 @running_in_slurmd()
  br i1 %33, label %34, label %44

34:                                               ; preds = %32
  %35 = call i32 @common_cgroup_instantiate(ptr noundef getelementptr inbounds ([9 x %struct.xcgroup_t], ptr getelementptr inbounds ([5 x [9 x %struct.xcgroup_t]], ptr @int_cg, i64 0, i64 1), i64 0, i64 8))
  store i32 %35, ptr %4, align 4
  %36 = icmp ne i32 %35, 0
  br i1 %36, label %37, label %38

37:                                               ; preds = %34
  br label %64

38:                                               ; preds = %34
  %39 = call i32 @common_cgroup_set_param(ptr noundef getelementptr inbounds ([9 x %struct.xcgroup_t], ptr getelementptr inbounds ([5 x [9 x %struct.xcgroup_t]], ptr @int_cg, i64 0, i64 1), i64 0, i64 8), ptr noundef @.str.11, ptr noundef @.str.12)
  %40 = call i32 @xcgroup_cpuset_init(ptr noundef getelementptr inbounds ([9 x %struct.xcgroup_t], ptr getelementptr inbounds ([5 x [9 x %struct.xcgroup_t]], ptr @int_cg, i64 0, i64 1), i64 0, i64 8))
  store i32 %40, ptr %4, align 4
  %41 = icmp ne i32 %40, 0
  br i1 %41, label %42, label %43

42:                                               ; preds = %38
  br label %64

43:                                               ; preds = %38
  br label %44

44:                                               ; preds = %43, %32
  br label %45

45:                                               ; preds = %44
  %46 = load i64, ptr getelementptr inbounds nuw (%struct.slurm_conf_t, ptr @slurm_conf, i32 0, i32 42), align 8
  %47 = and i64 %46, 36028797018963968
  %48 = icmp ne i64 %47, 0
  br i1 %48, label %49, label %57

49:                                               ; preds = %45
  br label %50

50:                                               ; preds = %49
  %51 = call i32 @get_log_level()
  %52 = icmp sge i32 %51, 4
  br i1 %52, label %53, label %54

53:                                               ; preds = %50
  call void (i32, ptr, ...) @log_var(i32 noundef 4, ptr noundef @.str.87, ptr noundef @plugin_type, ptr noundef @__func__._cpuset_create)
  br label %54

54:                                               ; preds = %53, %50
  br label %55

55:                                               ; preds = %54
  br label %56

56:                                               ; preds = %55
  br label %57

57:                                               ; preds = %56, %45
  br label %58

58:                                               ; preds = %57
  br label %59

59:                                               ; preds = %58
  br label %63

60:                                               ; preds = %20
  %61 = load ptr, ptr %3, align 8
  %62 = call i32 @xcgroup_create_hierarchy(ptr noundef @__func__._cpuset_create, ptr noundef %61, ptr noundef getelementptr inbounds ([5 x %struct.xcgroup_ns_t], ptr @g_cg_ns, i64 0, i64 1), ptr noundef getelementptr inbounds ([5 x [9 x %struct.xcgroup_t]], ptr @int_cg, i64 0, i64 1), ptr noundef getelementptr inbounds ([5 x [4096 x i8]], ptr @g_job_cgpath, i64 0, i64 1), ptr noundef getelementptr inbounds ([5 x [4096 x i8]], ptr @g_step_cgpath, i64 0, i64 1), ptr noundef getelementptr inbounds ([5 x [4096 x i8]], ptr @g_user_cgpath, i64 0, i64 1))
  store i32 %62, ptr %4, align 4
  br label %63

63:                                               ; preds = %60, %59
  br label %64

64:                                               ; preds = %63, %42, %37, %31
  call void @slurm_xfree(ptr noundef %6)
  call void @slurm_xfree(ptr noundef %5)
  %65 = load i32, ptr %4, align 4
  store i32 %65, ptr %2, align 4
  store i32 1, ptr %8, align 4
  br label %66

66:                                               ; preds = %64, %18
  call void @llvm.lifetime.end.p0(i64 8, ptr %7) #7
  call void @llvm.lifetime.end.p0(i64 8, ptr %6) #7
  call void @llvm.lifetime.end.p0(i64 8, ptr %5) #7
  call void @llvm.lifetime.end.p0(i64 4, ptr %4) #7
  %67 = load i32, ptr %2, align 4
  ret i32 %67
}