; Function Attrs: nounwind uwtable
define internal fastcc i32 @_cpuset_create(ptr noundef %0) unnamed_addr #0 {
  %2 = alloca ptr, align 8
  %3 = alloca ptr, align 8
  %4 = alloca i64, align 8
  call void @llvm.lifetime.start.p0(i64 8, ptr nonnull %2) #11
  store ptr null, ptr %2, align 8
  call void @llvm.lifetime.start.p0(i64 8, ptr nonnull %3) #11
  call void @llvm.lifetime.start.p0(i64 8, ptr nonnull %4) #11
  %5 = call i32 @common_cgroup_get_param(ptr noundef nonnull getelementptr inbounds nuw (i8, ptr @int_cg, i64 400), ptr noundef nonnull @.str.25, ptr noundef nonnull %3, ptr noundef nonnull %4) #11
  %6 = icmp ne i32 %5, 0
  %7 = load i64, ptr %4, align 8
  %8 = icmp eq i64 %7, 1
  %or.cond = select i1 %6, i1 true, i1 %8
  br i1 %or.cond, label %9, label %11

9:                                                ; preds = %1
  %10 = call i32 @xcgroup_cpuset_init(ptr noundef nonnull getelementptr inbounds nuw (i8, ptr @int_cg, i64 400)) #11
  %.not = icmp eq i32 %10, 0
  br i1 %.not, label %11, label %37

11:                                               ; preds = %9, %1
  %12 = call i32 @common_cgroup_set_param(ptr noundef nonnull getelementptr inbounds nuw (i8, ptr @int_cg, i64 400), ptr noundef nonnull @.str.86, ptr noundef nonnull @.str.12) #11
  %13 = icmp eq ptr %0, null
  br i1 %13, label %14, label %34

14:                                               ; preds = %11
  %15 = load ptr, ptr getelementptr inbounds nuw (i8, ptr @int_cg, i64 408), align 8
  call void (ptr, ptr, ...) @_xstrfmtcat(ptr noundef nonnull %2, ptr noundef nonnull @.str.10, ptr noundef %15) #11
  %16 = load ptr, ptr %2, align 8
  %17 = call i32 @getuid() #11
  %18 = call i32 @getgid() #11
  %19 = call i32 @common_cgroup_create(ptr noundef nonnull getelementptr inbounds nuw (i8, ptr @g_cg_ns, i64 32), ptr noundef nonnull getelementptr inbounds nuw (i8, ptr @int_cg, i64 680), ptr noundef %16, i32 noundef %17, i32 noundef %18) #11
  %.not12 = icmp eq i32 %19, 0
  br i1 %.not12, label %20, label %36

20:                                               ; preds = %14
  %21 = call zeroext i1 @running_in_slurmd() #11
  br i1 %21, label %22, label %27

22:                                               ; preds = %20
  %23 = call i32 @common_cgroup_instantiate(ptr noundef nonnull getelementptr inbounds nuw (i8, ptr @int_cg, i64 680)) #11
  %.not13 = icmp eq i32 %23, 0
  br i1 %.not13, label %24, label %36

24:                                               ; preds = %22
  %25 = call i32 @common_cgroup_set_param(ptr noundef nonnull getelementptr inbounds nuw (i8, ptr @int_cg, i64 680), ptr noundef nonnull @.str.11, ptr noundef nonnull @.str.12) #11
  %26 = call i32 @xcgroup_cpuset_init(ptr noundef nonnull getelementptr inbounds nuw (i8, ptr @int_cg, i64 680)) #11
  %.not14 = icmp eq i32 %26, 0
  br i1 %.not14, label %27, label %36

27:                                               ; preds = %20, %24
  %28 = load i64, ptr getelementptr inbounds nuw (i8, ptr @slurm_conf, i64 320), align 8
  %29 = and i64 %28, 36028797018963968
  %.not15 = icmp eq i64 %29, 0
  br i1 %.not15, label %36, label %30

30:                                               ; preds = %27
  %31 = call i32 @get_log_level() #11
  %32 = icmp sgt i32 %31, 3
  br i1 %32, label %33, label %36

33:                                               ; preds = %30
  call void (i32, ptr, ...) @log_var(i32 noundef 4, ptr noundef nonnull @.str.87, ptr noundef nonnull @plugin_type, ptr noundef nonnull @__func__._cpuset_create) #11
  br label %36

34:                                               ; preds = %11
  %35 = call i32 @xcgroup_create_hierarchy(ptr noundef nonnull @__func__._cpuset_create, ptr noundef nonnull %0, ptr noundef nonnull getelementptr inbounds nuw (i8, ptr @g_cg_ns, i64 32), ptr noundef nonnull getelementptr inbounds nuw (i8, ptr @int_cg, i64 360), ptr noundef nonnull getelementptr inbounds nuw (i8, ptr @g_job_cgpath, i64 4096), ptr noundef nonnull getelementptr inbounds nuw (i8, ptr @g_step_cgpath, i64 4096), ptr noundef nonnull getelementptr inbounds nuw (i8, ptr @g_user_cgpath, i64 4096)) #11
  br label %36

36:                                               ; preds = %34, %30, %33, %27, %24, %22, %14
  %.0 = phi i32 [ %19, %14 ], [ %23, %22 ], [ %26, %24 ], [ 0, %33 ], [ 0, %30 ], [ 0, %27 ], [ %35, %34 ]
  call void @slurm_xfree(ptr noundef nonnull %3) #11
  br label %37

37:                                               ; preds = %9, %36
  %.sink = phi ptr [ %2, %36 ], [ %3, %9 ]
  %.05 = phi i32 [ %.0, %36 ], [ -1, %9 ]
  call void @slurm_xfree(ptr noundef nonnull %.sink) #11
  call void @llvm.lifetime.end.p0(i64 8, ptr nonnull %4) #11
  call void @llvm.lifetime.end.p0(i64 8, ptr nonnull %3) #11
  call void @llvm.lifetime.end.p0(i64 8, ptr nonnull %2) #11
  ret i32 %.05
}